target datalayout = "e-m:e-p270:32:32-p271:32:32-p272:64:64-i64:64-i128:128-f80:128-n8:16:32:64-S128"
target triple = "x86_64-unknown-linux-gnu"

%"class.icu_75::LocalPointer.14" = type { %"class.icu_75::LocalPointerBase.15" }
%"class.icu_75::LocalPointerBase.15" = type { ptr }
%"class.icu_75::AndConstraint" = type <{ ptr, i32, i32, i32, [4 x i8], ptr, i8, i8, [2 x i8], i32, ptr, i32, [4 x i8] }>

@_ZTVN6icu_7513AndConstraintE = unnamed_addr constant { [4 x ptr] } { [4 x ptr] [ptr null, ptr @_ZTIN6icu_7513AndConstraintE, ptr @_ZN6icu_7513AndConstraintD1Ev, ptr @_ZN6icu_7513AndConstraintD0Ev] }, align 8
@_ZN6icu_7513AndConstraintC1ERKS0_ = unnamed_addr alias void (ptr, ptr), ptr @_ZN6icu_7513AndConstraintC2ERKS0_

; Function Attrs: mustprogress nounwind uwtable
define linkonce_odr void @_ZN6icu_7516LocalPointerBaseINS_9UVector32EED2Ev(ptr noundef nonnull align 8 dereferenceable(8) %this) unnamed_addr #0 comdat align 2 {
entry:
  %this.addr = alloca ptr, align 8
  store ptr %this, ptr %this.addr, align 8
  ret void
}

; Function Attrs: mustprogress nounwind uwtable
define internal noundef signext i8 @_ZL9U_SUCCESS10UErrorCode(i32 noundef %code) #0 {
entry:
  %code.addr = alloca i32, align 4
  store i32 %code, ptr %code.addr, align 4
  %0 = load i32, ptr %code.addr, align 4
  %cmp = icmp sle i32 %0, 0
  %conv = zext i1 %cmp to i8
  ret i8 %conv
}

; Function Attrs: mustprogress nounwind uwtable
define linkonce_odr void @_ZN6icu_7516LocalPointerBaseINS_9UVector32EEC2EPS1_(ptr noundef nonnull align 8 dereferenceable(8) %this, ptr noundef %p) unnamed_addr #0 comdat align 2 {
entry:
  %this.addr = alloca ptr, align 8
  %p.addr = alloca ptr, align 8
  store ptr %this, ptr %this.addr, align 8
  store ptr %p, ptr %p.addr, align 8
  %this1 = load ptr, ptr %this.addr, align 8
  %ptr = getelementptr inbounds %"class.icu_75::LocalPointerBase.15", ptr %this1, i32 0, i32 0
  %0 = load ptr, ptr %p.addr, align 8
  store ptr %0, ptr %ptr, align 8
  ret void
}

; Function Attrs: mustprogress nounwind uwtable
define linkonce_odr noundef ptr @_ZN6icu_7516LocalPointerBaseINS_9UVector32EE6orphanEv(ptr noundef nonnull align 8 dereferenceable(8) %this) #0 comdat align 2 {
entry:
  %this.addr = alloca ptr, align 8
  %p = alloca ptr, align 8
  store ptr %this, ptr %this.addr, align 8
  %this1 = load ptr, ptr %this.addr, align 8
  %ptr = getelementptr inbounds %"class.icu_75::LocalPointerBase.15", ptr %this1, i32 0, i32 0
  %0 = load ptr, ptr %ptr, align 8
  store ptr %0, ptr %p, align 8
  %ptr2 = getelementptr inbounds %"class.icu_75::LocalPointerBase.15", ptr %this1, i32 0, i32 0
  store ptr null, ptr %ptr2, align 8
  %1 = load ptr, ptr %p, align 8
  ret ptr %1
}

; Function Attrs: mustprogress nounwind uwtable
define linkonce_odr void @_ZN6icu_7512LocalPointerINS_9UVector32EED2Ev(ptr noundef nonnull align 8 dereferenceable(8) %this) unnamed_addr #0 comdat align 2 {
entry:
  %this.addr = alloca ptr, align 8
  store ptr %this, ptr %this.addr, align 8
  %this1 = load ptr, ptr %this.addr, align 8
  %ptr = getelementptr inbounds %"class.icu_75::LocalPointerBase.15", ptr %this1, i32 0, i32 0
  %0 = load ptr, ptr %ptr, align 8
  %isnull = icmp eq ptr %0, null
  br i1 %isnull, label %delete.end, label %delete.notnull

delete.notnull:                                   ; preds = %entry
  %vtable = load ptr, ptr %0, align 8
  %vfn = getelementptr inbounds ptr, ptr %vtable, i64 1
  %1 = load ptr, ptr %vfn, align 8
  call void %1(ptr noundef nonnull align 8 dereferenceable(32) %0) #13
  br label %delete.end

delete.end:                                       ; preds = %delete.notnull, %entry
  call void @_ZN6icu_7516LocalPointerBaseINS_9UVector32EED2Ev(ptr noundef nonnull align 8 dereferenceable(8) %this1) #13
  ret void
}

; Function Attrs: mustprogress uwtable
define linkonce_odr void @_ZN6icu_7512LocalPointerINS_9UVector32EEC2EPS1_R10UErrorCode(ptr noundef nonnull align 8 dereferenceable(8) %this, ptr noundef %p, ptr noundef nonnull align 4 dereferenceable(4) %errorCode) unnamed_addr #1 comdat align 2 {
entry:
  %this.addr = alloca ptr, align 8
  %p.addr = alloca ptr, align 8
  %errorCode.addr = alloca ptr, align 8
  store ptr %this, ptr %this.addr, align 8
  store ptr %p, ptr %p.addr, align 8
  store ptr %errorCode, ptr %errorCode.addr, align 8
  %this1 = load ptr, ptr %this.addr, align 8
  %0 = load ptr, ptr %p.addr, align 8
  call void @_ZN6icu_7516LocalPointerBaseINS_9UVector32EEC2EPS1_(ptr noundef nonnull align 8 dereferenceable(8) %this1, ptr noundef %0)
  %1 = load ptr, ptr %p.addr, align 8
  %cmp = icmp eq ptr %1, null
  br i1 %cmp, label %land.lhs.true, label %if.end

land.lhs.true:                                    ; preds = %entry
  %2 = load ptr, ptr %errorCode.addr, align 8
  %3 = load i32, ptr %2, align 4
  %call = call noundef signext i8 @_ZL9U_SUCCESS10UErrorCode(i32 noundef %3)
  %tobool = icmp ne i8 %call, 0
  br i1 %tobool, label %if.then, label %if.end

if.then:                                          ; preds = %land.lhs.true
  %4 = load ptr, ptr %errorCode.addr, align 8
  store i32 7, ptr %4, align 4
  br label %if.end

if.end:                                           ; preds = %if.then, %land.lhs.true, %entry
  ret void
}

; Function Attrs: mustprogress nounwind uwtable
define internal noundef signext i8 @_ZL9U_FAILURE10UErrorCode(i32 noundef %code) #0 {
entry:
  %code.addr = alloca i32, align 4
  store i32 %code, ptr %code.addr, align 4
  %0 = load i32, ptr %code.addr, align 4
  %cmp = icmp sgt i32 %0, 0
  %conv = zext i1 %cmp to i8
  ret i8 %conv
}

; Function Attrs: mustprogress uwtable
define void @_ZN6icu_7513AndConstraintC2ERKS0_(ptr noundef nonnull align 8 dereferenceable(52) %this, ptr noundef nonnull align 8 dereferenceable(52) %other) unnamed_addr #1 align 2 personality ptr @__gxx_personality_v0 {
entry:
  %this.addr = alloca ptr, align 8
  %other.addr = alloca ptr, align 8
  %newRangeList = alloca %"class.icu_75::LocalPointer.14", align 8
  %saved-rvalue = alloca ptr, align 8
  %cleanup.cond = alloca i1, align 1
  %exn.slot = alloca ptr, align 8
  %ehselector.slot = alloca i32, align 4
  %cleanup.dest.slot = alloca i32, align 4
  %saved-rvalue43 = alloca ptr, align 8
  %cleanup.cond44 = alloca i1, align 1
  store ptr %this, ptr %this.addr, align 8
  store ptr %other, ptr %other.addr, align 8
  %this1 = load ptr, ptr %this.addr, align 8
  store ptr getelementptr inbounds ({ [4 x ptr] }, ptr @_ZTVN6icu_7513AndConstraintE, i32 0, i32 0, i32 2), ptr %this1, align 8
  %op = getelementptr inbounds %"class.icu_75::AndConstraint", ptr %this1, i32 0, i32 1
  store i32 0, ptr %op, align 8
  %opNum = getelementptr inbounds %"class.icu_75::AndConstraint", ptr %this1, i32 0, i32 2
  store i32 -1, ptr %opNum, align 4
  %value = getelementptr inbounds %"class.icu_75::AndConstraint", ptr %this1, i32 0, i32 3
  store i32 -1, ptr %value, align 8
  %rangeList = getelementptr inbounds %"class.icu_75::AndConstraint", ptr %this1, i32 0, i32 5
  store ptr null, ptr %rangeList, align 8
  %negated = getelementptr inbounds %"class.icu_75::AndConstraint", ptr %this1, i32 0, i32 6
  store i8 0, ptr %negated, align 8
  %integerOnly = getelementptr inbounds %"class.icu_75::AndConstraint", ptr %this1, i32 0, i32 7
  store i8 0, ptr %integerOnly, align 1
  %digitsType = getelementptr inbounds %"class.icu_75::AndConstraint", ptr %this1, i32 0, i32 9
  store i32 0, ptr %digitsType, align 4
  %next = getelementptr inbounds %"class.icu_75::AndConstraint", ptr %this1, i32 0, i32 10
  store ptr null, ptr %next, align 8
  %fInternalStatus = getelementptr inbounds %"class.icu_75::AndConstraint", ptr %this1, i32 0, i32 11
  store i32 0, ptr %fInternalStatus, align 8
  %0 = load ptr, ptr %other.addr, align 8
  %fInternalStatus2 = getelementptr inbounds %"class.icu_75::AndConstraint", ptr %0, i32 0, i32 11
  %1 = load i32, ptr %fInternalStatus2, align 8
  %fInternalStatus3 = getelementptr inbounds %"class.icu_75::AndConstraint", ptr %this1, i32 0, i32 11
  store i32 %1, ptr %fInternalStatus3, align 8
  %fInternalStatus4 = getelementptr inbounds %"class.icu_75::AndConstraint", ptr %this1, i32 0, i32 11
  %2 = load i32, ptr %fInternalStatus4, align 8
  %call = call noundef signext i8 @_ZL9U_FAILURE10UErrorCode(i32 noundef %2)
  %tobool = icmp ne i8 %call, 0
  br i1 %tobool, label %if.then, label %if.end

if.then:                                          ; preds = %entry
  br label %if.end58

if.end:                                           ; preds = %entry
  %3 = load ptr, ptr %other.addr, align 8
  %op5 = getelementptr inbounds %"class.icu_75::AndConstraint", ptr %3, i32 0, i32 1
  %4 = load i32, ptr %op5, align 8
  %op6 = getelementptr inbounds %"class.icu_75::AndConstraint", ptr %this1, i32 0, i32 1
  store i32 %4, ptr %op6, align 8
  %5 = load ptr, ptr %other.addr, align 8
  %opNum7 = getelementptr inbounds %"class.icu_75::AndConstraint", ptr %5, i32 0, i32 2
  %6 = load i32, ptr %opNum7, align 4
  %opNum8 = getelementptr inbounds %"class.icu_75::AndConstraint", ptr %this1, i32 0, i32 2
  store i32 %6, ptr %opNum8, align 4
  %7 = load ptr, ptr %other.addr, align 8
  %value9 = getelementptr inbounds %"class.icu_75::AndConstraint", ptr %7, i32 0, i32 3
  %8 = load i32, ptr %value9, align 8
  %value10 = getelementptr inbounds %"class.icu_75::AndConstraint", ptr %this1, i32 0, i32 3
  store i32 %8, ptr %value10, align 8
  %9 = load ptr, ptr %other.addr, align 8
  %rangeList11 = getelementptr inbounds %"class.icu_75::AndConstraint", ptr %9, i32 0, i32 5
  %10 = load ptr, ptr %rangeList11, align 8
  %cmp = icmp ne ptr %10, null
  br i1 %cmp, label %if.then12, label %if.end30

if.then12:                                        ; preds = %if.end
  %call13 = call noundef ptr @_ZN6icu_757UMemorynwEm(i64 noundef 32) #13
  %new.isnull = icmp eq ptr %call13, null
  store i1 false, ptr %cleanup.cond, align 1
  br i1 %new.isnull, label %new.cont, label %new.notnull

new.notnull:                                      ; preds = %if.then12
  store ptr %call13, ptr %saved-rvalue, align 8
  store i1 true, ptr %cleanup.cond, align 1
  %fInternalStatus14 = getelementptr inbounds %"class.icu_75::AndConstraint", ptr %this1, i32 0, i32 11
  invoke void @_ZN6icu_759UVector32C1ER10UErrorCode(ptr noundef nonnull align 8 dereferenceable(32) %call13, ptr noundef nonnull align 4 dereferenceable(4) %fInternalStatus14)
          to label %invoke.cont unwind label %lpad

invoke.cont:                                      ; preds = %new.notnull
  br label %new.cont

new.cont:                                         ; preds = %invoke.cont, %if.then12
  %11 = phi ptr [ %call13, %invoke.cont ], [ null, %if.then12 ]
  %fInternalStatus15 = getelementptr inbounds %"class.icu_75::AndConstraint", ptr %this1, i32 0, i32 11
  call void @_ZN6icu_7512LocalPointerINS_9UVector32EEC2EPS1_R10UErrorCode(ptr noundef nonnull align 8 dereferenceable(8) %newRangeList, ptr noundef %11, ptr noundef nonnull align 4 dereferenceable(4) %fInternalStatus15)
  %fInternalStatus16 = getelementptr inbounds %"class.icu_75::AndConstraint", ptr %this1, i32 0, i32 11
  %12 = load i32, ptr %fInternalStatus16, align 8
  %call19 = invoke noundef signext i8 @_ZL9U_FAILURE10UErrorCode(i32 noundef %12)
          to label %invoke.cont18 unwind label %lpad17

invoke.cont18:                                    ; preds = %new.cont
  %tobool20 = icmp ne i8 %call19, 0
  br i1 %tobool20, label %if.then21, label %if.end22

if.then21:                                        ; preds = %invoke.cont18
  store i32 1, ptr %cleanup.dest.slot, align 4
  br label %cleanup

lpad:                                             ; preds = %new.notnull
  %13 = landingpad { ptr, i32 }
          cleanup
  %14 = extractvalue { ptr, i32 } %13, 0
  store ptr %14, ptr %exn.slot, align 8
  %15 = extractvalue { ptr, i32 } %13, 1
  store i32 %15, ptr %ehselector.slot, align 4
  %cleanup.is_active = load i1, ptr %cleanup.cond, align 1
  br i1 %cleanup.is_active, label %cleanup.action, label %cleanup.done

cleanup.action:                                   ; preds = %lpad
  %16 = load ptr, ptr %saved-rvalue, align 8
  call void @_ZN6icu_757UMemorydlEPv(ptr noundef %16) #13
  br label %cleanup.done

cleanup.done:                                     ; preds = %cleanup.action, %lpad
  br label %eh.resume

lpad17:                                           ; preds = %invoke.cont23, %if.end22, %new.cont
  %17 = landingpad { ptr, i32 }
          cleanup
  %18 = extractvalue { ptr, i32 } %17, 0
  store ptr %18, ptr %exn.slot, align 8
  %19 = extractvalue { ptr, i32 } %17, 1
  store i32 %19, ptr %ehselector.slot, align 4
  call void @_ZN6icu_7512LocalPointerINS_9UVector32EED2Ev(ptr noundef nonnull align 8 dereferenceable(8) %newRangeList) #13
  br label %eh.resume

if.end22:                                         ; preds = %invoke.cont18
  %call24 = invoke noundef ptr @_ZN6icu_7516LocalPointerBaseINS_9UVector32EE6orphanEv(ptr noundef nonnull align 8 dereferenceable(8) %newRangeList)
          to label %invoke.cont23 unwind label %lpad17

invoke.cont23:                                    ; preds = %if.end22
  %rangeList25 = getelementptr inbounds %"class.icu_75::AndConstraint", ptr %this1, i32 0, i32 5
  store ptr %call24, ptr %rangeList25, align 8
  %rangeList26 = getelementptr inbounds %"class.icu_75::AndConstraint", ptr %this1, i32 0, i32 5
  %20 = load ptr, ptr %rangeList26, align 8
  %21 = load ptr, ptr %other.addr, align 8
  %rangeList27 = getelementptr inbounds %"class.icu_75::AndConstraint", ptr %21, i32 0, i32 5
  %22 = load ptr, ptr %rangeList27, align 8
  %fInternalStatus28 = getelementptr inbounds %"class.icu_75::AndConstraint", ptr %this1, i32 0, i32 11
  invoke void @_ZN6icu_759UVector326assignERKS0_R10UErrorCode(ptr noundef nonnull align 8 dereferenceable(32) %20, ptr noundef nonnull align 8 dereferenceable(32) %22, ptr noundef nonnull align 4 dereferenceable(4) %fInternalStatus28)
          to label %invoke.cont29 unwind label %lpad17

invoke.cont29:                                    ; preds = %invoke.cont23
  store i32 0, ptr %cleanup.dest.slot, align 4
  br label %cleanup

cleanup:                                          ; preds = %invoke.cont29, %if.then21
  call void @_ZN6icu_7512LocalPointerINS_9UVector32EED2Ev(ptr noundef nonnull align 8 dereferenceable(8) %newRangeList) #13
  %cleanup.dest = load i32, ptr %cleanup.dest.slot, align 4
  switch i32 %cleanup.dest, label %unreachable [
    i32 0, label %cleanup.cont
    i32 1, label %if.end58
  ]

cleanup.cont:                                     ; preds = %cleanup
  br label %if.end30

if.end30:                                         ; preds = %cleanup.cont, %if.end
  %23 = load ptr, ptr %other.addr, align 8
  %integerOnly31 = getelementptr inbounds %"class.icu_75::AndConstraint", ptr %23, i32 0, i32 7
  %24 = load i8, ptr %integerOnly31, align 1
  %integerOnly32 = getelementptr inbounds %"class.icu_75::AndConstraint", ptr %this1, i32 0, i32 7
  store i8 %24, ptr %integerOnly32, align 1
  %25 = load ptr, ptr %other.addr, align 8
  %negated33 = getelementptr inbounds %"class.icu_75::AndConstraint", ptr %25, i32 0, i32 6
  %26 = load i8, ptr %negated33, align 8
  %negated34 = getelementptr inbounds %"class.icu_75::AndConstraint", ptr %this1, i32 0, i32 6
  store i8 %26, ptr %negated34, align 8
  %27 = load ptr, ptr %other.addr, align 8
  %digitsType35 = getelementptr inbounds %"class.icu_75::AndConstraint", ptr %27, i32 0, i32 9
  %28 = load i32, ptr %digitsType35, align 4
  %digitsType36 = getelementptr inbounds %"class.icu_75::AndConstraint", ptr %this1, i32 0, i32 9
  store i32 %28, ptr %digitsType36, align 4
  %29 = load ptr, ptr %other.addr, align 8
  %next37 = getelementptr inbounds %"class.icu_75::AndConstraint", ptr %29, i32 0, i32 10
  %30 = load ptr, ptr %next37, align 8
  %cmp38 = icmp ne ptr %30, null
  br i1 %cmp38, label %if.then39, label %if.end58

if.then39:                                        ; preds = %if.end30
  %call40 = call noundef ptr @_ZN6icu_757UMemorynwEm(i64 noundef 56) #13
  %new.isnull41 = icmp eq ptr %call40, null
  store i1 false, ptr %cleanup.cond44, align 1
  br i1 %new.isnull41, label %new.cont51, label %new.notnull42

new.notnull42:                                    ; preds = %if.then39
  store ptr %call40, ptr %saved-rvalue43, align 8
  store i1 true, ptr %cleanup.cond44, align 1
  %31 = load ptr, ptr %other.addr, align 8
  %next45 = getelementptr inbounds %"class.icu_75::AndConstraint", ptr %31, i32 0, i32 10
  %32 = load ptr, ptr %next45, align 8
  invoke void @_ZN6icu_7513AndConstraintC1ERKS0_(ptr noundef nonnull align 8 dereferenceable(52) %call40, ptr noundef nonnull align 8 dereferenceable(52) %32)
          to label %invoke.cont47 unwind label %lpad46

invoke.cont47:                                    ; preds = %new.notnull42
  br label %new.cont51

new.cont51:                                       ; preds = %invoke.cont47, %if.then39
  %33 = phi ptr [ %call40, %invoke.cont47 ], [ null, %if.then39 ]
  %next52 = getelementptr inbounds %"class.icu_75::AndConstraint", ptr %this1, i32 0, i32 10
  store ptr %33, ptr %next52, align 8
  %next53 = getelementptr inbounds %"class.icu_75::AndConstraint", ptr %this1, i32 0, i32 10
  %34 = load ptr, ptr %next53, align 8
  %cmp54 = icmp eq ptr %34, null
  br i1 %cmp54, label %if.then55, label %if.end57

if.then55:                                        ; preds = %new.cont51
  %fInternalStatus56 = getelementptr inbounds %"class.icu_75::AndConstraint", ptr %this1, i32 0, i32 11
  store i32 7, ptr %fInternalStatus56, align 8
  br label %if.end57

lpad46:                                           ; preds = %new.notnull42
  %35 = landingpad { ptr, i32 }
          cleanup
  %36 = extractvalue { ptr, i32 } %35, 0
  store ptr %36, ptr %exn.slot, align 8
  %37 = extractvalue { ptr, i32 } %35, 1
  store i32 %37, ptr %ehselector.slot, align 4
  %cleanup.is_active48 = load i1, ptr %cleanup.cond44, align 1
  br i1 %cleanup.is_active48, label %cleanup.action49, label %cleanup.done50

cleanup.action49:                                 ; preds = %lpad46
  %38 = load ptr, ptr %saved-rvalue43, align 8
  call void @_ZN6icu_757UMemorydlEPv(ptr noundef %38) #13
  br label %cleanup.done50

cleanup.done50:                                   ; preds = %cleanup.action49, %lpad46
  br label %eh.resume

if.end57:                                         ; preds = %if.then55, %new.cont51
  br label %if.end58

if.end58:                                         ; preds = %if.end57, %if.end30, %cleanup, %if.then
  ret void

eh.resume:                                        ; preds = %cleanup.done50, %lpad17, %cleanup.done
  %exn = load ptr, ptr %exn.slot, align 8
  %sel = load i32, ptr %ehselector.slot, align 4
  %lpad.val = insertvalue { ptr, i32 } poison, ptr %exn, 0
  %lpad.val59 = insertvalue { ptr, i32 } %lpad.val, i32 %sel, 1
  resume { ptr, i32 } %lpad.val59

unreachable:                                      ; preds = %cleanup
  unreachable
}