; Function Attrs: mustprogress uwtable
define void @_ZN6icu_7513AndConstraintC2ERKS0_(ptr noundef nonnull align 8 dereferenceable(52) %this, ptr nocapture noundef nonnull readonly align 8 dereferenceable(52) %other) unnamed_addr #1 align 2 personality ptr @__gxx_personality_v0 {
entry:
  store ptr getelementptr inbounds ({ [4 x ptr] }, ptr @_ZTVN6icu_7513AndConstraintE, i64 0, i32 0, i64 2), ptr %this, align 8
  %op = getelementptr inbounds i8, ptr %this, i64 8
  store i32 0, ptr %op, align 8
  %opNum = getelementptr inbounds i8, ptr %this, i64 12
  store i32 -1, ptr %opNum, align 4
  %value = getelementptr inbounds i8, ptr %this, i64 16
  store i32 -1, ptr %value, align 8
  %rangeList = getelementptr inbounds i8, ptr %this, i64 24
  store ptr null, ptr %rangeList, align 8
  %negated = getelementptr inbounds i8, ptr %this, i64 32
  store i8 0, ptr %negated, align 8
  %integerOnly = getelementptr inbounds i8, ptr %this, i64 33
  store i8 0, ptr %integerOnly, align 1
  %digitsType = getelementptr inbounds i8, ptr %this, i64 36
  %next = getelementptr inbounds i8, ptr %this, i64 40
  %fInternalStatus = getelementptr inbounds i8, ptr %this, i64 48
  %fInternalStatus2 = getelementptr inbounds i8, ptr %other, i64 48
  tail call void @llvm.memset.p0.i64(ptr noundef nonnull align 4 dereferenceable(16) %digitsType, i8 0, i64 16, i1 false)
  %0 = load i32, ptr %fInternalStatus2, align 8
  store i32 %0, ptr %fInternalStatus, align 8
  %cmp.i = icmp slt i32 %0, 1
  br i1 %cmp.i, label %if.end, label %if.end58

if.end:                                           ; preds = %entry
  %op5 = getelementptr inbounds i8, ptr %other, i64 8
  %1 = load i32, ptr %op5, align 8
  store i32 %1, ptr %op, align 8
  %opNum7 = getelementptr inbounds i8, ptr %other, i64 12
  %2 = load i32, ptr %opNum7, align 4
  store i32 %2, ptr %opNum, align 4
  %value9 = getelementptr inbounds i8, ptr %other, i64 16
  %3 = load i32, ptr %value9, align 8
  store i32 %3, ptr %value, align 8
  %rangeList11 = getelementptr inbounds i8, ptr %other, i64 24
  %4 = load ptr, ptr %rangeList11, align 8
  %cmp.not = icmp eq ptr %4, null
  br i1 %cmp.not, label %if.end30, label %if.then12

if.then12:                                        ; preds = %if.end
  %call13 = tail call noundef ptr @_ZN6icu_757UMemorynwEm(i64 noundef 32) #25
  %new.isnull = icmp eq ptr %call13, null
  br i1 %new.isnull, label %new.cont, label %new.notnull

new.notnull:                                      ; preds = %if.then12
  invoke void @_ZN6icu_759UVector32C1ER10UErrorCode(ptr noundef nonnull align 8 dereferenceable(32) %call13, ptr noundef nonnull align 4 dereferenceable(4) %fInternalStatus)
          to label %new.cont.thread unwind label %lpad

new.cont.thread:                                  ; preds = %new.notnull
  %.pr = load i32, ptr %fInternalStatus, align 8
  %5 = icmp sgt i32 %.pr, 0
  br i1 %5, label %delete.notnull.i16, label %if.end22

new.cont:                                         ; preds = %if.then12
  %6 = load i32, ptr %fInternalStatus, align 8
  %cmp.i.i = icmp sgt i32 %6, 0
  br i1 %cmp.i.i, label %if.end58, label %_ZN6icu_7512LocalPointerINS_9UVector32EED2Ev.exit19

lpad:                                             ; preds = %new.notnull
  %7 = landingpad { ptr, i32 }
          cleanup
  br label %eh.resume

if.end22:                                         ; preds = %new.cont.thread
  store ptr %call13, ptr %rangeList, align 8
  %8 = load ptr, ptr %rangeList11, align 8
  tail call void @_ZN6icu_759UVector326assignERKS0_R10UErrorCode(ptr noundef nonnull align 8 dereferenceable(32) %call13, ptr noundef nonnull align 8 dereferenceable(32) %8, ptr noundef nonnull align 4 dereferenceable(4) %fInternalStatus)
  br label %if.end30

delete.notnull.i16:                               ; preds = %new.cont.thread
  %vtable.i17 = load ptr, ptr %call13, align 8
  %vfn.i18 = getelementptr inbounds i8, ptr %vtable.i17, i64 8
  %9 = load ptr, ptr %vfn.i18, align 8
  tail call void %9(ptr noundef nonnull align 8 dereferenceable(32) %call13) #25
  br label %if.end58

_ZN6icu_7512LocalPointerINS_9UVector32EED2Ev.exit19: ; preds = %new.cont
  store i32 7, ptr %fInternalStatus, align 8
  br label %if.end58

if.end30:                                         ; preds = %if.end22, %if.end
  %integerOnly31 = getelementptr inbounds i8, ptr %other, i64 33
  %10 = load i8, ptr %integerOnly31, align 1
  store i8 %10, ptr %integerOnly, align 1
  %negated33 = getelementptr inbounds i8, ptr %other, i64 32
  %11 = load i8, ptr %negated33, align 8
  store i8 %11, ptr %negated, align 8
  %digitsType35 = getelementptr inbounds i8, ptr %other, i64 36
  %12 = load i32, ptr %digitsType35, align 4
  store i32 %12, ptr %digitsType, align 4
  %next37 = getelementptr inbounds i8, ptr %other, i64 40
  %13 = load ptr, ptr %next37, align 8
  %cmp38.not = icmp eq ptr %13, null
  br i1 %cmp38.not, label %if.end58, label %if.then39

if.then39:                                        ; preds = %if.end30
  %call40 = tail call noundef ptr @_ZN6icu_757UMemorynwEm(i64 noundef 56) #25
  %new.isnull41 = icmp eq ptr %call40, null
  br i1 %new.isnull41, label %if.then55, label %new.notnull42

new.notnull42:                                    ; preds = %if.then39
  %14 = load ptr, ptr %next37, align 8
  invoke void @_ZN6icu_7513AndConstraintC1ERKS0_(ptr noundef nonnull align 8 dereferenceable(52) %call40, ptr noundef nonnull align 8 dereferenceable(52) %14)
          to label %new.cont51 unwind label %lpad46

new.cont51:                                       ; preds = %new.notnull42
  store ptr %call40, ptr %next, align 8
  br label %if.end58

if.then55:                                        ; preds = %if.then39
  store ptr null, ptr %next, align 8
  store i32 7, ptr %fInternalStatus, align 8
  br label %if.end58

lpad46:                                           ; preds = %new.notnull42
  %15 = landingpad { ptr, i32 }
          cleanup
  br label %eh.resume

if.end58:                                         ; preds = %new.cont, %delete.notnull.i16, %new.cont51, %_ZN6icu_7512LocalPointerINS_9UVector32EED2Ev.exit19, %if.then55, %entry, %if.end30
  ret void

eh.resume:                                        ; preds = %lpad46, %lpad
  %call40.sink = phi ptr [ %call40, %lpad46 ], [ %call13, %lpad ]
  %.pn = phi { ptr, i32 } [ %15, %lpad46 ], [ %7, %lpad ]
  tail call void @_ZN6icu_757UMemorydlEPv(ptr noundef nonnull %call40.sink) #25
  resume { ptr, i32 } %.pn
}